; Function Attrs: mustprogress nounwind uwtable
define internal void @_ZNK12_GLOBAL__N_114StringArgument21writeCtorInitializersERN4llvm11raw_ostreamE(ptr noundef nonnull align 8 dereferenceable(90) %0, ptr noundef nonnull align 8 dereferenceable(48) %1) unnamed_addr #0 align 2 {
  %3 = getelementptr inbounds nuw i8, ptr %0, i64 8
  %4 = tail call noundef ptr @_ZNKSt7__cxx1112basic_stringIcSt11char_traitsIcESaIcEE4dataEv(ptr noundef nonnull align 8 dereferenceable(32) %3) #22
  %5 = tail call noundef i64 @_ZNKSt7__cxx1112basic_stringIcSt11char_traitsIcESaIcEE6lengthEv(ptr noundef nonnull align 8 dereferenceable(32) %3) #22
  %6 = getelementptr inbounds nuw i8, ptr %1, i64 24
  %7 = load ptr, ptr %6, align 8
  %8 = getelementptr inbounds nuw i8, ptr %1, i64 32
  %9 = load ptr, ptr %8, align 8
  %10 = ptrtoint ptr %7 to i64
  %11 = ptrtoint ptr %9 to i64
  %12 = sub i64 %10, %11
  %13 = icmp ugt i64 %5, %12
  br i1 %13, label %14, label %16

14:                                               ; preds = %2
  %15 = tail call noundef nonnull align 8 dereferenceable(48) ptr @_ZN4llvm11raw_ostream5writeEPKcm(ptr noundef nonnull align 8 dereferenceable(48) %1, ptr noundef %4, i64 noundef %5) #22
  %.phi.trans.insert = getelementptr inbounds nuw i8, ptr %15, i64 32
  %.pre = load ptr, ptr %.phi.trans.insert, align 8
  br label %_ZN4llvm11raw_ostreamlsENS_9StringRefE.exit

16:                                               ; preds = %2
  %.not.i = icmp eq i64 %5, 0
  br i1 %.not.i, label %_ZN4llvm11raw_ostreamlsENS_9StringRefE.exit, label %17

17:                                               ; preds = %16
  tail call void @llvm.memcpy.p0.p0.i64(ptr align 1 %9, ptr align 1 %4, i64 %5, i1 false)
  %18 = load ptr, ptr %8, align 8
  %19 = getelementptr inbounds i8, ptr %18, i64 %5
  store ptr %19, ptr %8, align 8
  br label %_ZN4llvm11raw_ostreamlsENS_9StringRefE.exit

_ZN4llvm11raw_ostreamlsENS_9StringRefE.exit:      ; preds = %14, %16, %17
  %20 = phi ptr [ %.pre, %14 ], [ %19, %17 ], [ %9, %16 ]
  %.0.i = phi ptr [ %15, %14 ], [ %1, %17 ], [ %1, %16 ]
  %21 = getelementptr inbounds nuw i8, ptr %.0.i, i64 24
  %22 = load ptr, ptr %21, align 8
  %23 = ptrtoint ptr %22 to i64
  %24 = ptrtoint ptr %20 to i64
  %25 = sub i64 %23, %24
  %26 = icmp ult i64 %25, 7
  br i1 %26, label %27, label %29

27:                                               ; preds = %_ZN4llvm11raw_ostreamlsENS_9StringRefE.exit
  %28 = tail call noundef nonnull align 8 dereferenceable(48) ptr @_ZN4llvm11raw_ostream5writeEPKcm(ptr noundef nonnull align 8 dereferenceable(48) %.0.i, ptr noundef nonnull @.str.768, i64 noundef 7) #22
  br label %_ZN4llvm11raw_ostreamlsEPKc.exit

29:                                               ; preds = %_ZN4llvm11raw_ostreamlsENS_9StringRefE.exit
  %30 = getelementptr inbounds nuw i8, ptr %.0.i, i64 32
  tail call void @llvm.memcpy.p0.p0.i64(ptr noundef nonnull align 1 dereferenceable(7) %20, ptr noundef nonnull align 1 dereferenceable(7) @.str.768, i64 7, i1 false)
  %31 = load ptr, ptr %30, align 8
  %32 = getelementptr inbounds i8, ptr %31, i64 7
  store ptr %32, ptr %30, align 8
  br label %_ZN4llvm11raw_ostreamlsEPKc.exit

_ZN4llvm11raw_ostreamlsEPKc.exit:                 ; preds = %27, %29
  %.0.i.i = phi ptr [ %28, %27 ], [ %.0.i, %29 ]
  %33 = getelementptr inbounds nuw i8, ptr %0, i64 40
  %34 = tail call noundef ptr @_ZNKSt7__cxx1112basic_stringIcSt11char_traitsIcESaIcEE4dataEv(ptr noundef nonnull align 8 dereferenceable(32) %33) #22
  %35 = tail call noundef i64 @_ZNKSt7__cxx1112basic_stringIcSt11char_traitsIcESaIcEE6lengthEv(ptr noundef nonnull align 8 dereferenceable(32) %33) #22
  %36 = getelementptr inbounds nuw i8, ptr %.0.i.i, i64 24
  %37 = load ptr, ptr %36, align 8
  %38 = getelementptr inbounds nuw i8, ptr %.0.i.i, i64 32
  %39 = load ptr, ptr %38, align 8
  %40 = ptrtoint ptr %37 to i64
  %41 = ptrtoint ptr %39 to i64
  %42 = sub i64 %40, %41
  %43 = icmp ugt i64 %35, %42
  br i1 %43, label %44, label %46

44:                                               ; preds = %_ZN4llvm11raw_ostreamlsEPKc.exit
  %45 = tail call noundef nonnull align 8 dereferenceable(48) ptr @_ZN4llvm11raw_ostream5writeEPKcm(ptr noundef nonnull align 8 dereferenceable(48) %.0.i.i, ptr noundef %34, i64 noundef %35) #22
  %.phi.trans.insert32 = getelementptr inbounds nuw i8, ptr %45, i64 32
  %.pre33 = load ptr, ptr %.phi.trans.insert32, align 8
  br label %_ZN4llvm11raw_ostreamlsENS_9StringRefE.exit12

46:                                               ; preds = %_ZN4llvm11raw_ostreamlsEPKc.exit
  %.not.i10 = icmp eq i64 %35, 0
  br i1 %.not.i10, label %_ZN4llvm11raw_ostreamlsENS_9StringRefE.exit12, label %47

47:                                               ; preds = %46
  tail call void @llvm.memcpy.p0.p0.i64(ptr align 1 %39, ptr align 1 %34, i64 %35, i1 false)
  %48 = load ptr, ptr %38, align 8
  %49 = getelementptr inbounds i8, ptr %48, i64 %35
  store ptr %49, ptr %38, align 8
  br label %_ZN4llvm11raw_ostreamlsENS_9StringRefE.exit12

_ZN4llvm11raw_ostreamlsENS_9StringRefE.exit12:    ; preds = %44, %46, %47
  %50 = phi ptr [ %.pre33, %44 ], [ %49, %47 ], [ %39, %46 ]
  %.0.i11 = phi ptr [ %45, %44 ], [ %.0.i.i, %47 ], [ %.0.i.i, %46 ]
  %51 = getelementptr inbounds nuw i8, ptr %.0.i11, i64 24
  %52 = load ptr, ptr %51, align 8
  %53 = ptrtoint ptr %52 to i64
  %54 = ptrtoint ptr %50 to i64
  %55 = sub i64 %53, %54
  %56 = icmp ult i64 %55, 9
  br i1 %56, label %57, label %59

57:                                               ; preds = %_ZN4llvm11raw_ostreamlsENS_9StringRefE.exit12
  %58 = tail call noundef nonnull align 8 dereferenceable(48) ptr @_ZN4llvm11raw_ostream5writeEPKcm(ptr noundef nonnull align 8 dereferenceable(48) %.0.i11, ptr noundef nonnull @.str.769, i64 noundef 9) #22
  br label %_ZN4llvm11raw_ostreamlsEPKc.exit15

59:                                               ; preds = %_ZN4llvm11raw_ostreamlsENS_9StringRefE.exit12
  %60 = getelementptr inbounds nuw i8, ptr %.0.i11, i64 32
  tail call void @llvm.memcpy.p0.p0.i64(ptr noundef nonnull align 1 dereferenceable(9) %50, ptr noundef nonnull align 1 dereferenceable(9) @.str.769, i64 9, i1 false)
  %61 = load ptr, ptr %60, align 8
  %62 = getelementptr inbounds i8, ptr %61, i64 9
  store ptr %62, ptr %60, align 8
  br label %_ZN4llvm11raw_ostreamlsEPKc.exit15

_ZN4llvm11raw_ostreamlsEPKc.exit15:               ; preds = %57, %59
  %.0.i.i14 = phi ptr [ %58, %57 ], [ %.0.i11, %59 ]
  %63 = tail call noundef ptr @_ZNKSt7__cxx1112basic_stringIcSt11char_traitsIcESaIcEE4dataEv(ptr noundef nonnull align 8 dereferenceable(32) %3) #22
  %64 = tail call noundef i64 @_ZNKSt7__cxx1112basic_stringIcSt11char_traitsIcESaIcEE6lengthEv(ptr noundef nonnull align 8 dereferenceable(32) %3) #22
  %65 = getelementptr inbounds nuw i8, ptr %.0.i.i14, i64 24
  %66 = load ptr, ptr %65, align 8
  %67 = getelementptr inbounds nuw i8, ptr %.0.i.i14, i64 32
  %68 = load ptr, ptr %67, align 8
  %69 = ptrtoint ptr %66 to i64
  %70 = ptrtoint ptr %68 to i64
  %71 = sub i64 %69, %70
  %72 = icmp ugt i64 %64, %71
  br i1 %72, label %73, label %75

73:                                               ; preds = %_ZN4llvm11raw_ostreamlsEPKc.exit15
  %74 = tail call noundef nonnull align 8 dereferenceable(48) ptr @_ZN4llvm11raw_ostream5writeEPKcm(ptr noundef nonnull align 8 dereferenceable(48) %.0.i.i14, ptr noundef %63, i64 noundef %64) #22
  %.phi.trans.insert34 = getelementptr inbounds nuw i8, ptr %74, i64 32
  %.pre35 = load ptr, ptr %.phi.trans.insert34, align 8
  br label %_ZN4llvm11raw_ostreamlsENS_9StringRefE.exit20

75:                                               ; preds = %_ZN4llvm11raw_ostreamlsEPKc.exit15
  %.not.i18 = icmp eq i64 %64, 0
  br i1 %.not.i18, label %_ZN4llvm11raw_ostreamlsENS_9StringRefE.exit20, label %76

76:                                               ; preds = %75
  tail call void @llvm.memcpy.p0.p0.i64(ptr align 1 %68, ptr align 1 %63, i64 %64, i1 false)
  %77 = load ptr, ptr %67, align 8
  %78 = getelementptr inbounds i8, ptr %77, i64 %64
  store ptr %78, ptr %67, align 8
  br label %_ZN4llvm11raw_ostreamlsENS_9StringRefE.exit20

_ZN4llvm11raw_ostreamlsENS_9StringRefE.exit20:    ; preds = %73, %75, %76
  %79 = phi ptr [ %.pre35, %73 ], [ %78, %76 ], [ %68, %75 ]
  %.0.i19 = phi ptr [ %74, %73 ], [ %.0.i.i14, %76 ], [ %.0.i.i14, %75 ]
  %80 = getelementptr inbounds nuw i8, ptr %.0.i19, i64 24
  %81 = load ptr, ptr %80, align 8
  %82 = ptrtoint ptr %81 to i64
  %83 = ptrtoint ptr %79 to i64
  %84 = sub i64 %82, %83
  %85 = icmp ult i64 %84, 19
  br i1 %85, label %86, label %88

86:                                               ; preds = %_ZN4llvm11raw_ostreamlsENS_9StringRefE.exit20
  %87 = tail call noundef nonnull align 8 dereferenceable(48) ptr @_ZN4llvm11raw_ostream5writeEPKcm(ptr noundef nonnull align 8 dereferenceable(48) %.0.i19, ptr noundef nonnull @.str.770, i64 noundef 19) #22
  br label %_ZN4llvm11raw_ostreamlsEPKc.exit23

88:                                               ; preds = %_ZN4llvm11raw_ostreamlsENS_9StringRefE.exit20
  %89 = getelementptr inbounds nuw i8, ptr %.0.i19, i64 32
  tail call void @llvm.memcpy.p0.p0.i64(ptr noundef nonnull align 1 dereferenceable(19) %79, ptr noundef nonnull align 1 dereferenceable(19) @.str.770, i64 19, i1 false)
  %90 = load ptr, ptr %89, align 8
  %91 = getelementptr inbounds i8, ptr %90, i64 19
  store ptr %91, ptr %89, align 8
  br label %_ZN4llvm11raw_ostreamlsEPKc.exit23

_ZN4llvm11raw_ostreamlsEPKc.exit23:               ; preds = %86, %88
  %.0.i.i22 = phi ptr [ %87, %86 ], [ %.0.i19, %88 ]
  %92 = tail call noundef ptr @_ZNKSt7__cxx1112basic_stringIcSt11char_traitsIcESaIcEE4dataEv(ptr noundef nonnull align 8 dereferenceable(32) %3) #22
  %93 = tail call noundef i64 @_ZNKSt7__cxx1112basic_stringIcSt11char_traitsIcESaIcEE6lengthEv(ptr noundef nonnull align 8 dereferenceable(32) %3) #22
  %94 = getelementptr inbounds nuw i8, ptr %.0.i.i22, i64 24
  %95 = load ptr, ptr %94, align 8
  %96 = getelementptr inbounds nuw i8, ptr %.0.i.i22, i64 32
  %97 = load ptr, ptr %96, align 8
  %98 = ptrtoint ptr %95 to i64
  %99 = ptrtoint ptr %97 to i64
  %100 = sub i64 %98, %99
  %101 = icmp ugt i64 %93, %100
  br i1 %101, label %102, label %104

102:                                              ; preds = %_ZN4llvm11raw_ostreamlsEPKc.exit23
  %103 = tail call noundef nonnull align 8 dereferenceable(48) ptr @_ZN4llvm11raw_ostream5writeEPKcm(ptr noundef nonnull align 8 dereferenceable(48) %.0.i.i22, ptr noundef %92, i64 noundef %93) #22
  %.phi.trans.insert36 = getelementptr inbounds nuw i8, ptr %103, i64 32
  %.pre37 = load ptr, ptr %.phi.trans.insert36, align 8
  br label %_ZN4llvm11raw_ostreamlsENS_9StringRefE.exit28

104:                                              ; preds = %_ZN4llvm11raw_ostreamlsEPKc.exit23
  %.not.i26 = icmp eq i64 %93, 0
  br i1 %.not.i26, label %_ZN4llvm11raw_ostreamlsENS_9StringRefE.exit28, label %105

105:                                              ; preds = %104
  tail call void @llvm.memcpy.p0.p0.i64(ptr align 1 %97, ptr align 1 %92, i64 %93, i1 false)
  %106 = load ptr, ptr %96, align 8
  %107 = getelementptr inbounds i8, ptr %106, i64 %93
  store ptr %107, ptr %96, align 8
  br label %_ZN4llvm11raw_ostreamlsENS_9StringRefE.exit28

_ZN4llvm11raw_ostreamlsENS_9StringRefE.exit28:    ; preds = %102, %104, %105
  %108 = phi ptr [ %.pre37, %102 ], [ %107, %105 ], [ %97, %104 ]
  %.0.i27 = phi ptr [ %103, %102 ], [ %.0.i.i22, %105 ], [ %.0.i.i22, %104 ]
  %109 = getelementptr inbounds nuw i8, ptr %.0.i27, i64 24
  %110 = load ptr, ptr %109, align 8
  %111 = ptrtoint ptr %110 to i64
  %112 = ptrtoint ptr %108 to i64
  %113 = sub i64 %111, %112
  %114 = icmp ult i64 %113, 8
  br i1 %114, label %115, label %117

115:                                              ; preds = %_ZN4llvm11raw_ostreamlsENS_9StringRefE.exit28
  %116 = tail call noundef nonnull align 8 dereferenceable(48) ptr @_ZN4llvm11raw_ostream5writeEPKcm(ptr noundef nonnull align 8 dereferenceable(48) %.0.i27, ptr noundef nonnull @.str.771, i64 noundef 8) #22
  br label %_ZN4llvm11raw_ostreamlsEPKc.exit31

117:                                              ; preds = %_ZN4llvm11raw_ostreamlsENS_9StringRefE.exit28
  %118 = getelementptr inbounds nuw i8, ptr %.0.i27, i64 32
  store i64 2980653377549919564, ptr %108, align 1
  %119 = load ptr, ptr %118, align 8
  %120 = getelementptr inbounds i8, ptr %119, i64 8
  store ptr %120, ptr %118, align 8
  br label %_ZN4llvm11raw_ostreamlsEPKc.exit31

_ZN4llvm11raw_ostreamlsEPKc.exit31:               ; preds = %115, %117
  ret void
}